target datalayout = "e-m:e-p270:32:32-p271:32:32-p272:64:64-i64:64-i128:128-f80:128-n8:16:32:64-S128"
target triple = "x86_64-pc-linux-gnu"

%"class.std::__cxx11::basic_string" = type { %"struct.std::__cxx11::basic_string<char>::_Alloc_hider", i64, %union.anon }
%"struct.std::__cxx11::basic_string<char>::_Alloc_hider" = type { ptr }
%union.anon = type { i64, [8 x i8] }
%class.QString = type { ptr }
%"class.std::vector.25" = type { %"struct.std::_Vector_base.26" }
%"struct.std::_Vector_base.26" = type { %"struct.std::_Vector_base<std::__cxx11::basic_string<char>, std::allocator<std::__cxx11::basic_string<char>>>::_Vector_impl" }
%"struct.std::_Vector_base<std::__cxx11::basic_string<char>, std::allocator<std::__cxx11::basic_string<char>>>::_Vector_impl" = type { %"struct.std::_Vector_base<std::__cxx11::basic_string<char>, std::allocator<std::__cxx11::basic_string<char>>>::_Vector_impl_data" }
%"struct.std::_Vector_base<std::__cxx11::basic_string<char>, std::allocator<std::__cxx11::basic_string<char>>>::_Vector_impl_data" = type { ptr, ptr, ptr }
%"class.std::vector.55" = type { %"struct.std::_Vector_base.56" }
%"struct.std::_Vector_base.56" = type { %"struct.std::_Vector_base<double, std::allocator<double>>::_Vector_impl" }
%"struct.std::_Vector_base<double, std::allocator<double>>::_Vector_impl" = type { %"struct.std::_Vector_base<double, std::allocator<double>>::_Vector_impl_data" }
%"struct.std::_Vector_base<double, std::allocator<double>>::_Vector_impl_data" = type { ptr, ptr, ptr }
%"class.std::__cxx11::list.63" = type { %"class.std::__cxx11::_List_base.64" }
%"class.std::__cxx11::_List_base.64" = type { %"struct.std::__cxx11::_List_base<int, std::allocator<int>>::_List_impl" }
%"struct.std::__cxx11::_List_base<int, std::allocator<int>>::_List_impl" = type { %"struct.std::__detail::_List_node_header" }
%"struct.std::__detail::_List_node_header" = type { %"struct.std::__detail::_List_node_base", i64 }
%"struct.std::__detail::_List_node_base" = type { ptr, ptr }
%class.FilterFunctionPlugin = type { %class.QObject, %class.FilterPlugin.base, double, double, double, double, double, double, double, double, double, double, double, double, double, double, double, double, double, double, double, double, double, double, double, double, double, double, double, double, double, double, double, double, double, double, double, double, double, double, double, double, double, double, double, double, double, double, double, double, double, double, double, double, double, double, double, double, double, double, double, double, double, double, double, double, double, double, double, double, double, double, double, double, double, double, double, double, double, double, double, double, double, double, double, double, %"class.std::vector.25", %"class.std::vector.55", %"class.std::vector.25", %"class.std::vector.55", %"class.std::vector.25", %"class.std::vector.55", %"class.std::vector.25", %"class.std::vector.55", %"class.std::vector.68", %"class.std::vector.73", %"class.std::vector.78", %"class.std::vector.83", %class.QString, %class.MeshLabPlugin, %class.MeshLabPluginLogger }
%class.QObject = type { ptr, %class.QScopedPointer }
%class.QScopedPointer = type { ptr }
%class.FilterPlugin.base = type { ptr, ptr, %"class.std::__cxx11::list", %"class.std::__cxx11::list.63" }
%"class.std::__cxx11::list" = type { %"class.std::__cxx11::_List_base" }
%"class.std::__cxx11::_List_base" = type { %"struct.std::__cxx11::_List_base<QAction *, std::allocator<QAction *>>::_List_impl" }
%"struct.std::__cxx11::_List_base<QAction *, std::allocator<QAction *>>::_List_impl" = type { %"struct.std::__detail::_List_node_header" }
%"class.std::vector.68" = type { %"struct.std::_Vector_base.69" }
%"struct.std::_Vector_base.69" = type { %"struct.std::_Vector_base<vcg::tri::TriMesh<vcg::vertex::vector_ocf<CVertexO>, vcg::face::vector_ocf<CFaceO>>::PerVertexAttributeHandle<float>, std::allocator<vcg::tri::TriMesh<vcg::vertex::vector_ocf<CVertexO>, vcg::face::vector_ocf<CFaceO>>::PerVertexAttributeHandle<float>>>::_Vector_impl" }
%"struct.std::_Vector_base<vcg::tri::TriMesh<vcg::vertex::vector_ocf<CVertexO>, vcg::face::vector_ocf<CFaceO>>::PerVertexAttributeHandle<float>, std::allocator<vcg::tri::TriMesh<vcg::vertex::vector_ocf<CVertexO>, vcg::face::vector_ocf<CFaceO>>::PerVertexAttributeHandle<float>>>::_Vector_impl" = type { %"struct.std::_Vector_base<vcg::tri::TriMesh<vcg::vertex::vector_ocf<CVertexO>, vcg::face::vector_ocf<CFaceO>>::PerVertexAttributeHandle<float>, std::allocator<vcg::tri::TriMesh<vcg::vertex::vector_ocf<CVertexO>, vcg::face::vector_ocf<CFaceO>>::PerVertexAttributeHandle<float>>>::_Vector_impl_data" }
%"struct.std::_Vector_base<vcg::tri::TriMesh<vcg::vertex::vector_ocf<CVertexO>, vcg::face::vector_ocf<CFaceO>>::PerVertexAttributeHandle<float>, std::allocator<vcg::tri::TriMesh<vcg::vertex::vector_ocf<CVertexO>, vcg::face::vector_ocf<CFaceO>>::PerVertexAttributeHandle<float>>>::_Vector_impl_data" = type { ptr, ptr, ptr }
%"class.std::vector.73" = type { %"struct.std::_Vector_base.74" }
%"struct.std::_Vector_base.74" = type { %"struct.std::_Vector_base<vcg::tri::TriMesh<vcg::vertex::vector_ocf<CVertexO>, vcg::face::vector_ocf<CFaceO>>::PerVertexAttributeHandle<vcg::Point3<float>>, std::allocator<vcg::tri::TriMesh<vcg::vertex::vector_ocf<CVertexO>, vcg::face::vector_ocf<CFaceO>>::PerVertexAttributeHandle<vcg::Point3<float>>>>::_Vector_impl" }
%"struct.std::_Vector_base<vcg::tri::TriMesh<vcg::vertex::vector_ocf<CVertexO>, vcg::face::vector_ocf<CFaceO>>::PerVertexAttributeHandle<vcg::Point3<float>>, std::allocator<vcg::tri::TriMesh<vcg::vertex::vector_ocf<CVertexO>, vcg::face::vector_ocf<CFaceO>>::PerVertexAttributeHandle<vcg::Point3<float>>>>::_Vector_impl" = type { %"struct.std::_Vector_base<vcg::tri::TriMesh<vcg::vertex::vector_ocf<CVertexO>, vcg::face::vector_ocf<CFaceO>>::PerVertexAttributeHandle<vcg::Point3<float>>, std::allocator<vcg::tri::TriMesh<vcg::vertex::vector_ocf<CVertexO>, vcg::face::vector_ocf<CFaceO>>::PerVertexAttributeHandle<vcg::Point3<float>>>>::_Vector_impl_data" }
%"struct.std::_Vector_base<vcg::tri::TriMesh<vcg::vertex::vector_ocf<CVertexO>, vcg::face::vector_ocf<CFaceO>>::PerVertexAttributeHandle<vcg::Point3<float>>, std::allocator<vcg::tri::TriMesh<vcg::vertex::vector_ocf<CVertexO>, vcg::face::vector_ocf<CFaceO>>::PerVertexAttributeHandle<vcg::Point3<float>>>>::_Vector_impl_data" = type { ptr, ptr, ptr }
%"class.std::vector.78" = type { %"struct.std::_Vector_base.79" }
%"struct.std::_Vector_base.79" = type { %"struct.std::_Vector_base<vcg::tri::TriMesh<vcg::vertex::vector_ocf<CVertexO>, vcg::face::vector_ocf<CFaceO>>::PerFaceAttributeHandle<float>, std::allocator<vcg::tri::TriMesh<vcg::vertex::vector_ocf<CVertexO>, vcg::face::vector_ocf<CFaceO>>::PerFaceAttributeHandle<float>>>::_Vector_impl" }
%"struct.std::_Vector_base<vcg::tri::TriMesh<vcg::vertex::vector_ocf<CVertexO>, vcg::face::vector_ocf<CFaceO>>::PerFaceAttributeHandle<float>, std::allocator<vcg::tri::TriMesh<vcg::vertex::vector_ocf<CVertexO>, vcg::face::vector_ocf<CFaceO>>::PerFaceAttributeHandle<float>>>::_Vector_impl" = type { %"struct.std::_Vector_base<vcg::tri::TriMesh<vcg::vertex::vector_ocf<CVertexO>, vcg::face::vector_ocf<CFaceO>>::PerFaceAttributeHandle<float>, std::allocator<vcg::tri::TriMesh<vcg::vertex::vector_ocf<CVertexO>, vcg::face::vector_ocf<CFaceO>>::PerFaceAttributeHandle<float>>>::_Vector_impl_data" }
%"struct.std::_Vector_base<vcg::tri::TriMesh<vcg::vertex::vector_ocf<CVertexO>, vcg::face::vector_ocf<CFaceO>>::PerFaceAttributeHandle<float>, std::allocator<vcg::tri::TriMesh<vcg::vertex::vector_ocf<CVertexO>, vcg::face::vector_ocf<CFaceO>>::PerFaceAttributeHandle<float>>>::_Vector_impl_data" = type { ptr, ptr, ptr }
%"class.std::vector.83" = type { %"struct.std::_Vector_base.84" }
%"struct.std::_Vector_base.84" = type { %"struct.std::_Vector_base<vcg::tri::TriMesh<vcg::vertex::vector_ocf<CVertexO>, vcg::face::vector_ocf<CFaceO>>::PerFaceAttributeHandle<vcg::Point3<float>>, std::allocator<vcg::tri::TriMesh<vcg::vertex::vector_ocf<CVertexO>, vcg::face::vector_ocf<CFaceO>>::PerFaceAttributeHandle<vcg::Point3<float>>>>::_Vector_impl" }
%"struct.std::_Vector_base<vcg::tri::TriMesh<vcg::vertex::vector_ocf<CVertexO>, vcg::face::vector_ocf<CFaceO>>::PerFaceAttributeHandle<vcg::Point3<float>>, std::allocator<vcg::tri::TriMesh<vcg::vertex::vector_ocf<CVertexO>, vcg::face::vector_ocf<CFaceO>>::PerFaceAttributeHandle<vcg::Point3<float>>>>::_Vector_impl" = type { %"struct.std::_Vector_base<vcg::tri::TriMesh<vcg::vertex::vector_ocf<CVertexO>, vcg::face::vector_ocf<CFaceO>>::PerFaceAttributeHandle<vcg::Point3<float>>, std::allocator<vcg::tri::TriMesh<vcg::vertex::vector_ocf<CVertexO>, vcg::face::vector_ocf<CFaceO>>::PerFaceAttributeHandle<vcg::Point3<float>>>>::_Vector_impl_data" }
%"struct.std::_Vector_base<vcg::tri::TriMesh<vcg::vertex::vector_ocf<CVertexO>, vcg::face::vector_ocf<CFaceO>>::PerFaceAttributeHandle<vcg::Point3<float>>, std::allocator<vcg::tri::TriMesh<vcg::vertex::vector_ocf<CVertexO>, vcg::face::vector_ocf<CFaceO>>::PerFaceAttributeHandle<vcg::Point3<float>>>>::_Vector_impl_data" = type { ptr, ptr, ptr }
%class.MeshLabPlugin = type { ptr, i8, %class.QFileInfo }
%class.QFileInfo = type { %class.QSharedDataPointer }
%class.QSharedDataPointer = type { ptr }
%class.MeshLabPluginLogger = type { ptr, ptr }

@.str.292 = private unnamed_addr constant [2 x i8] c"\0A\00", align 1

; Function Attrs: mustprogress uwtable
define internal void @_ZN10conversionL19fromWStringToStringERKNSt7__cxx1112basic_stringIcSt11char_traitsIcESaIcEEE(ptr dead_on_unwind noalias writable sret(%"class.std::__cxx11::basic_string") align 8 %0, ptr noundef nonnull align 8 dereferenceable(32) %1) #5 {
  %3 = alloca ptr, align 8
  %4 = alloca ptr, align 8
  store ptr %0, ptr %3, align 8
  store ptr %1, ptr %4, align 8
  %5 = load ptr, ptr %4, align 8
  call void @_ZNSt7__cxx1112basic_stringIcSt11char_traitsIcESaIcEEC1ERKS4_(ptr noundef nonnull align 8 dereferenceable(32) %0, ptr noundef nonnull align 8 dereferenceable(32) %5)
  ret void
}

; Function Attrs: mustprogress uwtable
define linkonce_odr noundef nonnull align 8 dereferenceable(8) ptr @_ZN7QStringpLERKS_(ptr noundef nonnull align 8 dereferenceable(8) %0, ptr noundef nonnull align 8 dereferenceable(8) %1) #5 comdat align 2 {
  %3 = alloca ptr, align 8
  %4 = alloca ptr, align 8
  store ptr %0, ptr %3, align 8
  store ptr %1, ptr %4, align 8
  %5 = load ptr, ptr %3, align 8
  %6 = load ptr, ptr %4, align 8
  %7 = call noundef nonnull align 8 dereferenceable(8) ptr @_ZN7QString6appendERKS_(ptr noundef nonnull align 8 dereferenceable(8) %5, ptr noundef nonnull align 8 dereferenceable(8) %6)
  ret ptr %7
}

; Function Attrs: mustprogress uwtable
define void @_ZN20FilterFunctionPlugin15showParserErrorERK7QStringRN2mu11ParserErrorE(ptr noundef nonnull align 8 dereferenceable(1048) %0, ptr noundef nonnull align 8 dereferenceable(8) %1, ptr noundef nonnull align 8 dereferenceable(112) %2) #5 align 2 personality ptr @__gxx_personality_v0 {
  %4 = alloca ptr, align 8
  %5 = alloca ptr, align 8
  %6 = alloca ptr, align 8
  %7 = alloca %"class.std::__cxx11::basic_string", align 8
  %8 = alloca ptr, align 8
  %9 = alloca i32, align 4
  store ptr %0, ptr %4, align 8
  store ptr %1, ptr %5, align 8
  store ptr %2, ptr %6, align 8
  %10 = load ptr, ptr %4, align 8
  %11 = load ptr, ptr %5, align 8
  %12 = getelementptr inbounds %class.FilterFunctionPlugin, ptr %10, i32 0, i32 98
  %13 = call noundef nonnull align 8 dereferenceable(8) ptr @_ZN7QStringpLERKS_(ptr noundef nonnull align 8 dereferenceable(8) %12, ptr noundef nonnull align 8 dereferenceable(8) %11)
  %14 = load ptr, ptr %6, align 8
  %15 = call noundef nonnull align 8 dereferenceable(32) ptr @_ZNK2mu11ParserError6GetMsgB5cxx11Ev(ptr noundef nonnull align 8 dereferenceable(112) %14)
  call void @_ZN10conversionL19fromWStringToStringERKNSt7__cxx1112basic_stringIcSt11char_traitsIcESaIcEEE(ptr dead_on_unwind writable sret(%"class.std::__cxx11::basic_string") align 8 %7, ptr noundef nonnull align 8 dereferenceable(32) %15)
  %16 = call noundef ptr @_ZNKSt7__cxx1112basic_stringIcSt11char_traitsIcESaIcEE5c_strEv(ptr noundef nonnull align 8 dereferenceable(32) %7) #3
  %17 = getelementptr inbounds %class.FilterFunctionPlugin, ptr %10, i32 0, i32 98
  %18 = invoke noundef nonnull align 8 dereferenceable(8) ptr @_ZN7QStringpLEPKc(ptr noundef nonnull align 8 dereferenceable(8) %17, ptr noundef %16)
          to label %19 unwind label %22

19:                                               ; preds = %3
  call void @_ZNSt7__cxx1112basic_stringIcSt11char_traitsIcESaIcEED1Ev(ptr noundef nonnull align 8 dereferenceable(32) %7) #3
  %20 = getelementptr inbounds %class.FilterFunctionPlugin, ptr %10, i32 0, i32 98
  %21 = call noundef nonnull align 8 dereferenceable(8) ptr @_ZN7QStringpLEPKc(ptr noundef nonnull align 8 dereferenceable(8) %20, ptr noundef @.str.292)
  ret void

22:                                               ; preds = %3
  %23 = landingpad { ptr, i32 }
          cleanup
  %24 = extractvalue { ptr, i32 } %23, 0
  store ptr %24, ptr %8, align 8
  %25 = extractvalue { ptr, i32 } %23, 1
  store i32 %25, ptr %9, align 4
  call void @_ZNSt7__cxx1112basic_stringIcSt11char_traitsIcESaIcEED1Ev(ptr noundef nonnull align 8 dereferenceable(32) %7) #3
  br label %26

26:                                               ; preds = %22
  %27 = load ptr, ptr %8, align 8
  %28 = load i32, ptr %9, align 4
  %29 = insertvalue { ptr, i32 } poison, ptr %27, 0
  %30 = insertvalue { ptr, i32 } %29, i32 %28, 1
  resume { ptr, i32 } %30
}